target datalayout = "e-m:e-p270:32:32-p271:32:32-p272:64:64-i64:64-i128:128-f80:128-n8:16:32:64-S128"
target triple = "x86_64-unknown-linux-gnu"

%"class.Assimp::MDLImporter" = type <{ %"class.Assimp::BaseImporter", i32, [4 x i8], %"class.std::__cxx11::basic_string", ptr, i32, [4 x i8], ptr, ptr, i32, %"struct.Assimp::MDL::HalfLife::HL1ImportSettings", [2 x i8] }>
%"class.Assimp::BaseImporter" = type { ptr, double, double, %"class.std::__cxx11::basic_string", %"class.std::__exception_ptr::exception_ptr", ptr }
%"class.std::__exception_ptr::exception_ptr" = type { ptr }
%"class.std::__cxx11::basic_string" = type { %"struct.std::__cxx11::basic_string<char>::_Alloc_hider", i64, %union.anon }
%"struct.std::__cxx11::basic_string<char>::_Alloc_hider" = type { ptr }
%union.anon = type { i64, [8 x i8] }
%"struct.Assimp::MDL::HalfLife::HL1ImportSettings" = type { i8, i8, i8, i8, i8, i8, i8, i8, i8, i8 }

; Function Attrs: mustprogress nounwind uwtable
define linkonce_odr hidden void @_ZN6Assimp3MDL8HalfLife17HL1ImportSettingsC2Ev(ptr noundef nonnull align 1 dereferenceable(10) %this) unnamed_addr #0 comdat align 2 {
entry:
  %this.addr = alloca ptr, align 8
  store ptr %this, ptr %this.addr, align 8
  %this1 = load ptr, ptr %this.addr, align 8
  %read_animations = getelementptr inbounds %"struct.Assimp::MDL::HalfLife::HL1ImportSettings", ptr %this1, i32 0, i32 0
  store i8 0, ptr %read_animations, align 1
  %read_animation_events = getelementptr inbounds %"struct.Assimp::MDL::HalfLife::HL1ImportSettings", ptr %this1, i32 0, i32 1
  store i8 0, ptr %read_animation_events, align 1
  %read_blend_controllers = getelementptr inbounds %"struct.Assimp::MDL::HalfLife::HL1ImportSettings", ptr %this1, i32 0, i32 2
  store i8 0, ptr %read_blend_controllers, align 1
  %read_sequence_groups_info = getelementptr inbounds %"struct.Assimp::MDL::HalfLife::HL1ImportSettings", ptr %this1, i32 0, i32 3
  store i8 0, ptr %read_sequence_groups_info, align 1
  %read_sequence_transitions = getelementptr inbounds %"struct.Assimp::MDL::HalfLife::HL1ImportSettings", ptr %this1, i32 0, i32 4
  store i8 0, ptr %read_sequence_transitions, align 1
  %read_attachments = getelementptr inbounds %"struct.Assimp::MDL::HalfLife::HL1ImportSettings", ptr %this1, i32 0, i32 5
  store i8 0, ptr %read_attachments, align 1
  %read_bone_controllers = getelementptr inbounds %"struct.Assimp::MDL::HalfLife::HL1ImportSettings", ptr %this1, i32 0, i32 6
  store i8 0, ptr %read_bone_controllers, align 1
  %read_hitboxes = getelementptr inbounds %"struct.Assimp::MDL::HalfLife::HL1ImportSettings", ptr %this1, i32 0, i32 7
  store i8 0, ptr %read_hitboxes, align 1
  %read_textures = getelementptr inbounds %"struct.Assimp::MDL::HalfLife::HL1ImportSettings", ptr %this1, i32 0, i32 8
  store i8 0, ptr %read_textures, align 1
  %read_misc_global_info = getelementptr inbounds %"struct.Assimp::MDL::HalfLife::HL1ImportSettings", ptr %this1, i32 0, i32 9
  store i8 0, ptr %read_misc_global_info, align 1
  ret void
}

; Function Attrs: mustprogress uwtable
define hidden void @_ZN6Assimp11MDLImporterC2Ev(ptr noundef nonnull align 8 dereferenceable(158) %this) unnamed_addr #2 align 2 personality ptr @__gxx_personality_v0 {
entry:
  %this.addr = alloca ptr, align 8
  %exn.slot = alloca ptr, align 8
  %ehselector.slot = alloca i32, align 4
  store ptr %this, ptr %this.addr, align 8
  %this1 = load ptr, ptr %this.addr, align 8
  call void @_ZN6Assimp12BaseImporterC2Ev(ptr noundef nonnull align 8 dereferenceable(72) %this1) #16
  store ptr getelementptr inbounds ({ [8 x ptr] }, ptr @_ZTVN6Assimp11MDLImporterE, i32 0, i32 0, i32 2), ptr %this1, align 8
  %configFrameID = getelementptr inbounds %"class.Assimp::MDLImporter", ptr %this1, i32 0, i32 1
  store i32 0, ptr %configFrameID, align 8
  %configPalette = getelementptr inbounds %"class.Assimp::MDLImporter", ptr %this1, i32 0, i32 3
  call void @_ZNSt7__cxx1112basic_stringIcSt11char_traitsIcESaIcEEC1Ev(ptr noundef nonnull align 8 dereferenceable(32) %configPalette) #16
  %mBuffer = getelementptr inbounds %"class.Assimp::MDLImporter", ptr %this1, i32 0, i32 4
  store ptr null, ptr %mBuffer, align 8
  %iGSFileVersion = getelementptr inbounds %"class.Assimp::MDLImporter", ptr %this1, i32 0, i32 5
  store i32 0, ptr %iGSFileVersion, align 8
  %mIOHandler = getelementptr inbounds %"class.Assimp::MDLImporter", ptr %this1, i32 0, i32 7
  store ptr null, ptr %mIOHandler, align 8
  %pScene = getelementptr inbounds %"class.Assimp::MDLImporter", ptr %this1, i32 0, i32 8
  store ptr null, ptr %pScene, align 8
  %iFileSize = getelementptr inbounds %"class.Assimp::MDLImporter", ptr %this1, i32 0, i32 9
  store i32 0, ptr %iFileSize, align 8
  %mHL1ImportSettings = getelementptr inbounds %"class.Assimp::MDLImporter", ptr %this1, i32 0, i32 10
  invoke void @_ZN6Assimp3MDL8HalfLife17HL1ImportSettingsC2Ev(ptr noundef nonnull align 1 dereferenceable(10) %mHL1ImportSettings)
          to label %invoke.cont unwind label %lpad

invoke.cont:                                      ; preds = %entry
  ret void

lpad:                                             ; preds = %entry
  %0 = landingpad { ptr, i32 }
          cleanup
  %1 = extractvalue { ptr, i32 } %0, 0
  store ptr %1, ptr %exn.slot, align 8
  %2 = extractvalue { ptr, i32 } %0, 1
  store i32 %2, ptr %ehselector.slot, align 4
  call void @_ZNSt7__cxx1112basic_stringIcSt11char_traitsIcESaIcEED1Ev(ptr noundef nonnull align 8 dereferenceable(32) %configPalette) #16
  call void @_ZN6Assimp12BaseImporterD2Ev(ptr noundef nonnull align 8 dereferenceable(72) %this1) #16
  br label %eh.resume

eh.resume:                                        ; preds = %lpad
  %exn = load ptr, ptr %exn.slot, align 8
  %sel = load i32, ptr %ehselector.slot, align 4
  %lpad.val = insertvalue { ptr, i32 } poison, ptr %exn, 0
  %lpad.val2 = insertvalue { ptr, i32 } %lpad.val, i32 %sel, 1
  resume { ptr, i32 } %lpad.val2
}