; Function Attrs: mustprogress nounwind uwtable
define hidden void @_ZN6Assimp11MDLImporterC2Ev(ptr noundef nonnull align 8 dereferenceable(158) %this) unnamed_addr #0 align 2 personality ptr @__gxx_personality_v0 {
entry:
  tail call void @_ZN6Assimp12BaseImporterC2Ev(ptr noundef nonnull align 8 dereferenceable(72) %this) #24
  store ptr getelementptr inbounds ({ [8 x ptr] }, ptr @_ZTVN6Assimp11MDLImporterE, i64 0, i32 0, i64 2), ptr %this, align 8
  %configFrameID = getelementptr inbounds i8, ptr %this, i64 72
  store i32 0, ptr %configFrameID, align 8
  %configPalette = getelementptr inbounds i8, ptr %this, i64 80
  tail call void @_ZNSt7__cxx1112basic_stringIcSt11char_traitsIcESaIcEEC1Ev(ptr noundef nonnull align 8 dereferenceable(32) %configPalette) #24
  %mBuffer = getelementptr inbounds i8, ptr %this, i64 112
  store ptr null, ptr %mBuffer, align 8
  %iGSFileVersion = getelementptr inbounds i8, ptr %this, i64 120
  store i32 0, ptr %iGSFileVersion, align 8
  %mIOHandler = getelementptr inbounds i8, ptr %this, i64 128
  tail call void @llvm.memset.p0.i64(ptr noundef nonnull align 8 dereferenceable(30) %mIOHandler, i8 0, i64 30, i1 false)
  ret void
}